target datalayout = "e-m:e-p270:32:32-p271:32:32-p272:64:64-i64:64-i128:128-f80:128-n8:16:32:64-S128"
target triple = "x86_64-pc-linux-gnu"

%struct.RsaKey = type { %struct.sp_int, %struct.sp_int, %struct.sp_int, %struct.sp_int, %struct.sp_int, %struct.sp_int, %struct.sp_int, %struct.sp_int, ptr, ptr, i32, i32, i32, ptr, i8 }
%struct.sp_int = type { i16, i16, [129 x i64] }

; Function Attrs: nounwind uwtable
define i32 @wc_RsaPSS_CheckPadding_ex(ptr noundef %0, i32 noundef %1, ptr noundef %2, i32 noundef %3, i32 noundef %4, i32 noundef %5, i32 noundef %6) #0 {
  %8 = alloca ptr, align 8
  %9 = alloca i32, align 4
  %10 = alloca ptr, align 8
  %11 = alloca i32, align 4
  %12 = alloca i32, align 4
  %13 = alloca i32, align 4
  %14 = alloca i32, align 4
  store ptr %0, ptr %8, align 8, !tbaa !27
  store i32 %1, ptr %9, align 4, !tbaa !7
  store ptr %2, ptr %10, align 8, !tbaa !27
  store i32 %3, ptr %11, align 4, !tbaa !7
  store i32 %4, ptr %12, align 4, !tbaa !7
  store i32 %5, ptr %13, align 4, !tbaa !7
  store i32 %6, ptr %14, align 4, !tbaa !7
  %15 = load ptr, ptr %8, align 8, !tbaa !27
  %16 = load i32, ptr %9, align 4, !tbaa !7
  %17 = load ptr, ptr %10, align 8, !tbaa !27
  %18 = load i32, ptr %11, align 4, !tbaa !7
  %19 = load i32, ptr %12, align 4, !tbaa !7
  %20 = load i32, ptr %13, align 4, !tbaa !7
  %21 = load i32, ptr %14, align 4, !tbaa !7
  %22 = call i32 @wc_RsaPSS_CheckPadding_ex2(ptr noundef %15, i32 noundef %16, ptr noundef %17, i32 noundef %18, i32 noundef %19, i32 noundef %20, i32 noundef %21, ptr noundef null)
  ret i32 %22
}

; Function Attrs: nounwind uwtable
define i32 @wc_RsaPSS_Verify_ex(ptr noundef %0, i32 noundef %1, ptr noundef %2, i32 noundef %3, i32 noundef %4, i32 noundef %5, i32 noundef %6, ptr noundef %7) #0 {
  %9 = alloca ptr, align 8
  %10 = alloca i32, align 4
  %11 = alloca ptr, align 8
  %12 = alloca i32, align 4
  %13 = alloca i32, align 4
  %14 = alloca i32, align 4
  %15 = alloca i32, align 4
  %16 = alloca ptr, align 8
  %17 = alloca ptr, align 8
  %18 = alloca i32, align 4
  store ptr %0, ptr %9, align 8, !tbaa !27
  store i32 %1, ptr %10, align 4, !tbaa !7
  store ptr %2, ptr %11, align 8, !tbaa !27
  store i32 %3, ptr %12, align 4, !tbaa !7
  store i32 %4, ptr %13, align 4, !tbaa !7
  store i32 %5, ptr %14, align 4, !tbaa !7
  store i32 %6, ptr %15, align 4, !tbaa !7
  store ptr %7, ptr %16, align 8, !tbaa !11
  call void @llvm.lifetime.start.p0(i64 8, ptr %17) #8
  call void @llvm.lifetime.start.p0(i64 4, ptr %18) #8
  %19 = load ptr, ptr %16, align 8, !tbaa !11
  %20 = getelementptr inbounds nuw %struct.RsaKey, ptr %19, i32 0, i32 13
  %21 = load ptr, ptr %20, align 8, !tbaa !24
  store ptr %21, ptr %17, align 8, !tbaa !29
  br label %22

22:                                               ; preds = %8
  br label %23

23:                                               ; preds = %22
  br label %24

24:                                               ; preds = %23
  %25 = load ptr, ptr %9, align 8, !tbaa !27
  %26 = load i32, ptr %10, align 4, !tbaa !7
  %27 = load ptr, ptr %11, align 8, !tbaa !27
  %28 = load i32, ptr %12, align 4, !tbaa !7
  %29 = load ptr, ptr %16, align 8, !tbaa !11
  %30 = load i32, ptr %13, align 4, !tbaa !7
  %31 = load i32, ptr %14, align 4, !tbaa !7
  %32 = load i32, ptr %15, align 4, !tbaa !7
  %33 = load ptr, ptr %17, align 8, !tbaa !29
  %34 = call i32 @RsaPrivateDecryptEx(ptr noundef %25, i32 noundef %26, ptr noundef %27, i32 noundef %28, ptr noundef null, ptr noundef %29, i32 noundef 1, i8 noundef zeroext 1, i32 noundef 2, i32 noundef %30, i32 noundef %31, ptr noundef null, i32 noundef 0, i32 noundef %32, ptr noundef %33)
  store i32 %34, ptr %18, align 4, !tbaa !7
  br label %35

35:                                               ; preds = %24
  br label %36

36:                                               ; preds = %35
  br label %37

37:                                               ; preds = %36
  %38 = load i32, ptr %18, align 4, !tbaa !7
  call void @llvm.lifetime.end.p0(i64 4, ptr %18) #8
  call void @llvm.lifetime.end.p0(i64 8, ptr %17) #8
  ret i32 %38
}

; Function Attrs: nounwind uwtable
define i32 @wc_RsaPSS_VerifyCheck(ptr noundef %0, i32 noundef %1, ptr noundef %2, i32 noundef %3, ptr noundef %4, i32 noundef %5, i32 noundef %6, i32 noundef %7, ptr noundef %8) #0 {
  %10 = alloca i32, align 4
  %11 = alloca ptr, align 8
  %12 = alloca i32, align 4
  %13 = alloca ptr, align 8
  %14 = alloca i32, align 4
  %15 = alloca ptr, align 8
  %16 = alloca i32, align 4
  %17 = alloca i32, align 4
  %18 = alloca i32, align 4
  %19 = alloca ptr, align 8
  %20 = alloca i32, align 4
  %21 = alloca i32, align 4
  %22 = alloca i32, align 4
  %23 = alloca i32, align 4
  %24 = alloca i32, align 4
  %25 = alloca i32, align 4
  store ptr %0, ptr %11, align 8, !tbaa !27
  store i32 %1, ptr %12, align 4, !tbaa !7
  store ptr %2, ptr %13, align 8, !tbaa !27
  store i32 %3, ptr %14, align 4, !tbaa !7
  store ptr %4, ptr %15, align 8, !tbaa !27
  store i32 %5, ptr %16, align 4, !tbaa !7
  store i32 %6, ptr %17, align 4, !tbaa !7
  store i32 %7, ptr %18, align 4, !tbaa !7
  store ptr %8, ptr %19, align 8, !tbaa !11
  call void @llvm.lifetime.start.p0(i64 4, ptr %20) #8
  store i32 0, ptr %20, align 4, !tbaa !7
  call void @llvm.lifetime.start.p0(i64 4, ptr %21) #8
  call void @llvm.lifetime.start.p0(i64 4, ptr %22) #8
  call void @llvm.lifetime.start.p0(i64 4, ptr %23) #8
  call void @llvm.lifetime.start.p0(i64 4, ptr %24) #8
  store i32 0, ptr %24, align 4, !tbaa !7
  %26 = load i32, ptr %17, align 4, !tbaa !7
  %27 = call i32 @wc_HashGetDigestSize(i32 noundef %26)
  store i32 %27, ptr %23, align 4, !tbaa !7
  %28 = load i32, ptr %23, align 4, !tbaa !7
  %29 = icmp slt i32 %28, 0
  br i1 %29, label %30, label %32

30:                                               ; preds = %9
  %31 = load i32, ptr %23, align 4, !tbaa !7
  store i32 %31, ptr %10, align 4
  store i32 1, ptr %25, align 4
  br label %76

32:                                               ; preds = %9
  %33 = load i32, ptr %23, align 4, !tbaa !7
  %34 = load i32, ptr %16, align 4, !tbaa !7
  %35 = icmp ne i32 %33, %34
  br i1 %35, label %36, label %37

36:                                               ; preds = %32
  store i32 -173, ptr %10, align 4
  store i32 1, ptr %25, align 4
  br label %76

37:                                               ; preds = %32
  %38 = load i32, ptr %23, align 4, !tbaa !7
  store i32 %38, ptr %22, align 4, !tbaa !7
  %39 = load ptr, ptr %19, align 8, !tbaa !11
  %40 = getelementptr inbounds nuw %struct.RsaKey, ptr %39, i32 0, i32 0
  %41 = call i32 @sp_count_bits(ptr noundef %40)
  store i32 %41, ptr %24, align 4, !tbaa !7
  %42 = load i32, ptr %24, align 4, !tbaa !7
  %43 = icmp eq i32 %42, 1024
  br i1 %43, label %44, label %48

44:                                               ; preds = %37
  %45 = load i32, ptr %23, align 4, !tbaa !7
  %46 = icmp eq i32 %45, 64
  br i1 %46, label %47, label %48

47:                                               ; preds = %44
  store i32 62, ptr %22, align 4, !tbaa !7
  br label %48

48:                                               ; preds = %47, %44, %37
  %49 = load ptr, ptr %11, align 8, !tbaa !27
  %50 = load i32, ptr %12, align 4, !tbaa !7
  %51 = load ptr, ptr %13, align 8, !tbaa !27
  %52 = load i32, ptr %14, align 4, !tbaa !7
  %53 = load i32, ptr %17, align 4, !tbaa !7
  %54 = load i32, ptr %18, align 4, !tbaa !7
  %55 = load i32, ptr %22, align 4, !tbaa !7
  %56 = load ptr, ptr %19, align 8, !tbaa !11
  %57 = call i32 @wc_RsaPSS_Verify_ex(ptr noundef %49, i32 noundef %50, ptr noundef %51, i32 noundef %52, i32 noundef %53, i32 noundef %54, i32 noundef %55, ptr noundef %56)
  store i32 %57, ptr %21, align 4, !tbaa !7
  %58 = load i32, ptr %21, align 4, !tbaa !7
  %59 = icmp sgt i32 %58, 0
  br i1 %59, label %60, label %69

60:                                               ; preds = %48
  %61 = load ptr, ptr %15, align 8, !tbaa !27
  %62 = load i32, ptr %16, align 4, !tbaa !7
  %63 = load ptr, ptr %13, align 8, !tbaa !27
  %64 = load i32, ptr %21, align 4, !tbaa !7
  %65 = load i32, ptr %17, align 4, !tbaa !7
  %66 = load i32, ptr %22, align 4, !tbaa !7
  %67 = load i32, ptr %24, align 4, !tbaa !7
  %68 = call i32 @wc_RsaPSS_CheckPadding_ex(ptr noundef %61, i32 noundef %62, ptr noundef %63, i32 noundef %64, i32 noundef %65, i32 noundef %66, i32 noundef %67)
  store i32 %68, ptr %20, align 4, !tbaa !7
  br label %69

69:                                               ; preds = %60, %48
  %70 = load i32, ptr %20, align 4, !tbaa !7
  %71 = icmp eq i32 %70, 0
  br i1 %71, label %72, label %74

72:                                               ; preds = %69
  %73 = load i32, ptr %21, align 4, !tbaa !7
  store i32 %73, ptr %20, align 4, !tbaa !7
  br label %74

74:                                               ; preds = %72, %69
  %75 = load i32, ptr %20, align 4, !tbaa !7
  store i32 %75, ptr %10, align 4
  store i32 1, ptr %25, align 4
  br label %76

76:                                               ; preds = %74, %36, %30
  call void @llvm.lifetime.end.p0(i64 4, ptr %24) #8
  call void @llvm.lifetime.end.p0(i64 4, ptr %23) #8
  call void @llvm.lifetime.end.p0(i64 4, ptr %22) #8
  call void @llvm.lifetime.end.p0(i64 4, ptr %21) #8
  call void @llvm.lifetime.end.p0(i64 4, ptr %20) #8
  %77 = load i32, ptr %10, align 4
  ret i32 %77
}