; Function Attrs: nounwind uwtable
define i32 @wc_RsaPSS_VerifyCheck(ptr noundef captures(address_is_null) %0, i32 noundef %1, ptr noundef %2, i32 noundef %3, ptr noundef captures(address_is_null) %4, i32 noundef %5, i32 noundef %6, i32 noundef %7, ptr noundef %8) local_unnamed_addr #0 {
  %10 = tail call i32 @wc_HashGetDigestSize(i32 noundef %6) #12
  %11 = icmp slt i32 %10, 0
  br i1 %11, label %24, label %12

12:                                               ; preds = %9
  %.not = icmp eq i32 %10, %5
  br i1 %.not, label %13, label %24

13:                                               ; preds = %12
  %14 = tail call i32 @sp_count_bits(ptr noundef %8) #12
  %15 = icmp eq i32 %14, 1024
  %16 = icmp eq i32 %5, 64
  %or.cond = and i1 %16, %15
  %spec.select = select i1 %or.cond, i32 62, i32 %5
  %17 = getelementptr inbounds nuw i8, ptr %8, i64 8352
  %18 = load ptr, ptr %17, align 8, !tbaa !14
  %19 = tail call fastcc i32 @RsaPrivateDecryptEx(ptr noundef %0, i32 noundef %1, ptr noundef %2, i32 noundef %3, ptr noundef null, ptr noundef %8, i32 noundef 1, i8 noundef zeroext 1, i32 noundef 2, i32 noundef %6, i32 noundef %7, ptr noundef null, i32 noundef 0, i32 noundef %spec.select, ptr noundef %18)
  %20 = icmp sgt i32 %19, 0
  br i1 %20, label %21, label %.thread

21:                                               ; preds = %13
  %22 = tail call i32 @wc_RsaPSS_CheckPadding_ex2(ptr noundef %4, i32 noundef %5, ptr noundef %2, i32 noundef %19, i32 noundef %6, i32 noundef %spec.select, i32 noundef %14, ptr poison)
  %.fr = freeze i32 %22
  %23 = icmp eq i32 %.fr, 0
  br i1 %23, label %.thread, label %24

.thread:                                          ; preds = %13, %21
  br label %24

24:                                               ; preds = %.thread, %21, %12, %9
  %.0 = phi i32 [ %10, %9 ], [ -173, %12 ], [ %19, %.thread ], [ %.fr, %21 ]
  ret i32 %.0
}